; Function Attrs: mustprogress uwtable
define void @_ZN7rocksdb14ThreadedWriter5WriteEPNS_12WritableFileEPNS_16CacheWriteBufferEmSt8functionIFvvEE(ptr noundef nonnull align 8 dereferenceable(192) %this, ptr noundef %file, ptr noundef %buf, i64 noundef %file_off, ptr noundef %callback) unnamed_addr #0 align 2 personality ptr @__gxx_personality_v0 {
entry:
  %ref.tmp = alloca %"struct.rocksdb::ThreadedWriter::IO", align 8
  %agg.tmp = alloca %"class.std::function", align 8
  %_M_manager.i.i = getelementptr inbounds i8, ptr %agg.tmp, i64 16
  %_M_manager.i.i.i = getelementptr inbounds i8, ptr %callback, i64 16
  call void @llvm.memset.p0.i64(ptr noundef nonnull align 8 dereferenceable(32) %agg.tmp, i8 0, i64 32, i1 false)
  %0 = load ptr, ptr %_M_manager.i.i.i, align 8
  %tobool.not.i.i.not.i = icmp eq ptr %0, null
  br i1 %tobool.not.i.i.not.i, label %_ZNSt8functionIFvvEEC2ERKS1_.exit, label %if.then.i

if.then.i:                                        ; preds = %entry
  %call3.i = invoke noundef zeroext i1 %0(ptr noundef nonnull align 8 dereferenceable(16) %agg.tmp, ptr noundef nonnull align 8 dereferenceable(16) %callback, i32 noundef 2)
          to label %invoke.cont.i unwind label %lpad.i

invoke.cont.i:                                    ; preds = %if.then.i
  %1 = load <2 x ptr>, ptr %_M_manager.i.i.i, align 8
  store <2 x ptr> %1, ptr %_M_manager.i.i, align 8
  %2 = extractelement <2 x ptr> %1, i64 0
  br label %_ZNSt8functionIFvvEEC2ERKS1_.exit

lpad.i:                                           ; preds = %if.then.i
  %3 = landingpad { ptr, i32 }
          cleanup
  %4 = load ptr, ptr %_M_manager.i.i, align 8
  %tobool.not.i.i = icmp eq ptr %4, null
  br i1 %tobool.not.i.i, label %common.resume, label %if.then.i.i

if.then.i.i:                                      ; preds = %lpad.i
  %call.i.i = invoke noundef zeroext i1 %4(ptr noundef nonnull align 8 dereferenceable(16) %agg.tmp, ptr noundef nonnull align 8 dereferenceable(16) %agg.tmp, i32 noundef 3)
          to label %common.resume unwind label %terminate.lpad.i.i

terminate.lpad.i.i:                               ; preds = %if.then.i.i
  %5 = landingpad { ptr, i32 }
          catch ptr null
  %6 = extractvalue { ptr, i32 } %5, 0
  call void @__clang_call_terminate(ptr %6) #18
  unreachable

common.resume:                                    ; preds = %if.then.i.i25, %ehcleanup, %lpad.i, %if.then.i.i
  %common.resume.op = phi { ptr, i32 } [ %3, %if.then.i.i ], [ %3, %lpad.i ], [ %.pn, %ehcleanup ], [ %.pn, %if.then.i.i25 ]
  resume { ptr, i32 } %common.resume.op

_ZNSt8functionIFvvEEC2ERKS1_.exit:                ; preds = %entry, %invoke.cont.i
  %7 = phi ptr [ null, %entry ], [ %2, %invoke.cont.i ]
  store ptr %file, ptr %ref.tmp, align 8
  %buf_.i = getelementptr inbounds i8, ptr %ref.tmp, i64 8
  store ptr %buf, ptr %buf_.i, align 8
  %file_off_.i = getelementptr inbounds i8, ptr %ref.tmp, i64 16
  store i64 %file_off, ptr %file_off_.i, align 8
  %signal_.i = getelementptr inbounds i8, ptr %ref.tmp, i64 24
  store i8 0, ptr %signal_.i, align 8
  %callback_.i = getelementptr inbounds i8, ptr %ref.tmp, i64 32
  %_M_manager.i.i.i2 = getelementptr inbounds i8, ptr %ref.tmp, i64 48
  call void @llvm.memset.p0.i64(ptr noundef nonnull align 8 dereferenceable(32) %callback_.i, i8 0, i64 32, i1 false)
  %tobool.not.i.i.not.i.i = icmp eq ptr %7, null
  br i1 %tobool.not.i.i.not.i.i, label %invoke.cont, label %if.then.i.i3

if.then.i.i3:                                     ; preds = %_ZNSt8functionIFvvEEC2ERKS1_.exit
  %call3.i.i = invoke noundef zeroext i1 %7(ptr noundef nonnull align 8 dereferenceable(16) %callback_.i, ptr noundef nonnull align 8 dereferenceable(16) %agg.tmp, i32 noundef 2)
          to label %invoke.cont.i.i unwind label %lpad.i.i

invoke.cont.i.i:                                  ; preds = %if.then.i.i3
  %8 = load <2 x ptr>, ptr %_M_manager.i.i, align 8
  store <2 x ptr> %8, ptr %_M_manager.i.i.i2, align 8
  br label %invoke.cont

lpad.i.i:                                         ; preds = %if.then.i.i3
  %9 = landingpad { ptr, i32 }
          cleanup
  %10 = load ptr, ptr %_M_manager.i.i.i2, align 8
  %tobool.not.i.i.i = icmp eq ptr %10, null
  br i1 %tobool.not.i.i.i, label %ehcleanup, label %if.then.i.i.i

if.then.i.i.i:                                    ; preds = %lpad.i.i
  %call.i.i.i = invoke noundef zeroext i1 %10(ptr noundef nonnull align 8 dereferenceable(16) %callback_.i, ptr noundef nonnull align 8 dereferenceable(16) %callback_.i, i32 noundef 3)
          to label %ehcleanup unwind label %terminate.lpad.i.i.i

terminate.lpad.i.i.i:                             ; preds = %if.then.i.i.i
  %11 = landingpad { ptr, i32 }
          catch ptr null
  %12 = extractvalue { ptr, i32 } %11, 0
  call void @__clang_call_terminate(ptr %12) #18
  unreachable

invoke.cont:                                      ; preds = %invoke.cont.i.i, %_ZNSt8functionIFvvEEC2ERKS1_.exit
  %q_ = getelementptr inbounds i8, ptr %this, i64 24
  invoke void @_ZN7rocksdb12BoundedQueueINS_14ThreadedWriter2IOEE4PushEOS2_(ptr noundef nonnull align 8 dereferenceable(144) %q_, ptr noundef nonnull align 8 dereferenceable(64) %ref.tmp)
          to label %invoke.cont3 unwind label %lpad2

invoke.cont3:                                     ; preds = %invoke.cont
  %13 = load ptr, ptr %_M_manager.i.i.i2, align 8
  %tobool.not.i.i.i5 = icmp eq ptr %13, null
  br i1 %tobool.not.i.i.i5, label %_ZN7rocksdb14ThreadedWriter2IOD2Ev.exit, label %if.then.i.i.i6

if.then.i.i.i6:                                   ; preds = %invoke.cont3
  %call.i.i.i8 = invoke noundef zeroext i1 %13(ptr noundef nonnull align 8 dereferenceable(16) %callback_.i, ptr noundef nonnull align 8 dereferenceable(16) %callback_.i, i32 noundef 3)
          to label %_ZN7rocksdb14ThreadedWriter2IOD2Ev.exit unwind label %terminate.lpad.i.i.i9

terminate.lpad.i.i.i9:                            ; preds = %if.then.i.i.i6
  %14 = landingpad { ptr, i32 }
          catch ptr null
  %15 = extractvalue { ptr, i32 } %14, 0
  call void @__clang_call_terminate(ptr %15) #18
  unreachable

_ZN7rocksdb14ThreadedWriter2IOD2Ev.exit:          ; preds = %invoke.cont3, %if.then.i.i.i6
  %16 = load ptr, ptr %_M_manager.i.i, align 8
  %tobool.not.i.i11 = icmp eq ptr %16, null
  br i1 %tobool.not.i.i11, label %_ZNSt8functionIFvvEED2Ev.exit, label %if.then.i.i12

if.then.i.i12:                                    ; preds = %_ZN7rocksdb14ThreadedWriter2IOD2Ev.exit
  %call.i.i13 = invoke noundef zeroext i1 %16(ptr noundef nonnull align 8 dereferenceable(16) %agg.tmp, ptr noundef nonnull align 8 dereferenceable(16) %agg.tmp, i32 noundef 3)
          to label %_ZNSt8functionIFvvEED2Ev.exit unwind label %terminate.lpad.i.i14

terminate.lpad.i.i14:                             ; preds = %if.then.i.i12
  %17 = landingpad { ptr, i32 }
          catch ptr null
  %18 = extractvalue { ptr, i32 } %17, 0
  call void @__clang_call_terminate(ptr %18) #18
  unreachable

_ZNSt8functionIFvvEED2Ev.exit:                    ; preds = %_ZN7rocksdb14ThreadedWriter2IOD2Ev.exit, %if.then.i.i12
  ret void

lpad2:                                            ; preds = %invoke.cont
  %19 = landingpad { ptr, i32 }
          cleanup
  %20 = load ptr, ptr %_M_manager.i.i.i2, align 8
  %tobool.not.i.i.i17 = icmp eq ptr %20, null
  br i1 %tobool.not.i.i.i17, label %ehcleanup, label %if.then.i.i.i18

if.then.i.i.i18:                                  ; preds = %lpad2
  %call.i.i.i20 = invoke noundef zeroext i1 %20(ptr noundef nonnull align 8 dereferenceable(16) %callback_.i, ptr noundef nonnull align 8 dereferenceable(16) %callback_.i, i32 noundef 3)
          to label %ehcleanup unwind label %terminate.lpad.i.i.i21

terminate.lpad.i.i.i21:                           ; preds = %if.then.i.i.i18
  %21 = landingpad { ptr, i32 }
          catch ptr null
  %22 = extractvalue { ptr, i32 } %21, 0
  call void @__clang_call_terminate(ptr %22) #18
  unreachable

ehcleanup:                                        ; preds = %if.then.i.i.i18, %lpad2, %if.then.i.i.i, %lpad.i.i
  %.pn = phi { ptr, i32 } [ %9, %if.then.i.i.i ], [ %9, %lpad.i.i ], [ %19, %lpad2 ], [ %19, %if.then.i.i.i18 ]
  %23 = load ptr, ptr %_M_manager.i.i, align 8
  %tobool.not.i.i24 = icmp eq ptr %23, null
  br i1 %tobool.not.i.i24, label %common.resume, label %if.then.i.i25

if.then.i.i25:                                    ; preds = %ehcleanup
  %call.i.i26 = invoke noundef zeroext i1 %23(ptr noundef nonnull align 8 dereferenceable(16) %agg.tmp, ptr noundef nonnull align 8 dereferenceable(16) %agg.tmp, i32 noundef 3)
          to label %common.resume unwind label %terminate.lpad.i.i27

terminate.lpad.i.i27:                             ; preds = %if.then.i.i25
  %24 = landingpad { ptr, i32 }
          catch ptr null
  %25 = extractvalue { ptr, i32 } %24, 0
  call void @__clang_call_terminate(ptr %25) #18
  unreachable
}